target datalayout = "e-m:e-p270:32:32-p271:32:32-p272:64:64-i64:64-i128:128-f80:128-n8:16:32:64-S128"
target triple = "x86_64-pc-linux-gnu"

%struct.SDL_GPUDevice = type { ptr, ptr, ptr, ptr, ptr, ptr, ptr, ptr, ptr, ptr, ptr, ptr, ptr, ptr, ptr, ptr, ptr, ptr, ptr, ptr, ptr, ptr, ptr, ptr, ptr, ptr, ptr, ptr, ptr, ptr, ptr, ptr, ptr, ptr, ptr, ptr, ptr, ptr, ptr, ptr, ptr, ptr, ptr, ptr, ptr, ptr, ptr, ptr, ptr, ptr, ptr, ptr, ptr, ptr, ptr, ptr, ptr, ptr, ptr, ptr, ptr, ptr, ptr, ptr, ptr, ptr, ptr, ptr, ptr, ptr, ptr, ptr, ptr, ptr, ptr, ptr, ptr, ptr, ptr, ptr, ptr, ptr, ptr, ptr, ptr, i32, i8 }

@.str.3 = private unnamed_addr constant [19 x i8] c"Invalid GPU device\00", align 1
@.str.4 = private unnamed_addr constant [26 x i8] c"Parameter '%s' is invalid\00", align 1
@.str.8 = private unnamed_addr constant [103 x i8] c"generated/home/dtcxzyw/WorkSpace/Projects/compilers/llvm-opt-benchmark/bench/sdl/SDL/src/gpu/SDL_gpu.c\00", align 1
@.str.352 = private unnamed_addr constant [7 x i8] c"window\00", align 1
@SDL_SetGPUSwapchainParameters_REAL.sdl_assert_data = internal global { i8, [3 x i8], i32, ptr, ptr, i32, [4 x i8], ptr, ptr } { i8 0, [3 x i8] zeroinitializer, i32 0, ptr @.str.354, ptr null, i32 0, [4 x i8] zeroinitializer, ptr null, ptr null }, align 8
@__func__.SDL_SetGPUSwapchainParameters_REAL = private unnamed_addr constant [35 x i8] c"SDL_SetGPUSwapchainParameters_REAL\00", align 1
@SDL_SetGPUSwapchainParameters_REAL.sdl_assert_data.358 = internal global { i8, [3 x i8], i32, ptr, ptr, i32, [4 x i8], ptr, ptr } { i8 0, [3 x i8] zeroinitializer, i32 0, ptr @.str.356, ptr null, i32 0, [4 x i8] zeroinitializer, ptr null, ptr null }, align 8

; Function Attrs: nounwind uwtable
define hidden zeroext i1 @SDL_SetGPUSwapchainParameters_REAL(ptr noundef %0, ptr noundef %1, i32 noundef %2, i32 noundef %3) #0 {
  %5 = alloca i1, align 1
  %6 = alloca ptr, align 8
  %7 = alloca ptr, align 8
  %8 = alloca i32, align 4
  %9 = alloca i32, align 4
  %10 = alloca i32, align 4
  %11 = alloca i32, align 4
  %12 = alloca i32, align 4
  store ptr %0, ptr %6, align 8
  store ptr %1, ptr %7, align 8
  store i32 %2, ptr %8, align 4
  store i32 %3, ptr %9, align 4
  %13 = load ptr, ptr %6, align 8
  %14 = icmp eq ptr %13, null
  br i1 %14, label %15, label %17

15:                                               ; preds = %4
  %16 = call zeroext i1 (ptr, ...) @SDL_SetError_REAL(ptr noundef @.str.3)
  store i1 false, ptr %5, align 1
  br label %85

17:                                               ; preds = %4
  %18 = load ptr, ptr %7, align 8
  %19 = icmp eq ptr %18, null
  br i1 %19, label %20, label %22

20:                                               ; preds = %17
  %21 = call zeroext i1 (ptr, ...) @SDL_SetError_REAL(ptr noundef @.str.4, ptr noundef @.str.352)
  store i1 false, ptr %5, align 1
  br label %85

22:                                               ; preds = %17
  %23 = load ptr, ptr %6, align 8
  %24 = getelementptr inbounds nuw %struct.SDL_GPUDevice, ptr %23, i32 0, i32 86
  %25 = load i8, ptr %24, align 4, !range !5, !noundef !6
  %26 = trunc i8 %25 to i1
  br i1 %26, label %27, label %74

27:                                               ; preds = %22
  %28 = load i32, ptr %8, align 4
  %29 = icmp ult i32 %28, 0
  br i1 %29, label %33, label %30

30:                                               ; preds = %27
  %31 = load i32, ptr %8, align 4
  %32 = icmp uge i32 %31, 4
  br i1 %32, label %33, label %50

33:                                               ; preds = %30, %27
  br label %34

34:                                               ; preds = %33
  br label %35

35:                                               ; preds = %34, %46
  call void @llvm.lifetime.start.p0(i64 4, ptr %10) #6
  %36 = call i32 @SDL_ReportAssertion_REAL(ptr noundef @SDL_SetGPUSwapchainParameters_REAL.sdl_assert_data, ptr noundef @__func__.SDL_SetGPUSwapchainParameters_REAL, ptr noundef @.str.8, i32 noundef 2898)
  store i32 %36, ptr %10, align 4
  %37 = load i32, ptr %10, align 4
  %38 = icmp eq i32 %37, 0
  br i1 %38, label %39, label %40

39:                                               ; preds = %35
  store i32 4, ptr %11, align 4
  br label %46

40:                                               ; preds = %35
  %41 = load i32, ptr %10, align 4
  %42 = icmp eq i32 %41, 1
  br i1 %42, label %43, label %44

43:                                               ; preds = %40
  call void @llvm.debugtrap()
  br label %44

44:                                               ; preds = %43, %40
  br label %45

45:                                               ; preds = %44
  store i32 5, ptr %11, align 4
  br label %46

46:                                               ; preds = %45, %39
  call void @llvm.lifetime.end.p0(i64 4, ptr %10) #6
  %47 = load i32, ptr %11, align 4
  switch i32 %47, label %87 [
    i32 4, label %35
    i32 5, label %48
  ]

48:                                               ; preds = %46
  br label %49

49:                                               ; preds = %48
  store i1 false, ptr %5, align 1
  br label %85

50:                                               ; preds = %30
  %51 = load i32, ptr %9, align 4
  %52 = icmp ult i32 %51, 0
  br i1 %52, label %56, label %53

53:                                               ; preds = %50
  %54 = load i32, ptr %9, align 4
  %55 = icmp uge i32 %54, 3
  br i1 %55, label %56, label %73

56:                                               ; preds = %53, %50
  br label %57

57:                                               ; preds = %56
  br label %58

58:                                               ; preds = %57, %69
  call void @llvm.lifetime.start.p0(i64 4, ptr %12) #6
  %59 = call i32 @SDL_ReportAssertion_REAL(ptr noundef @SDL_SetGPUSwapchainParameters_REAL.sdl_assert_data.358, ptr noundef @__func__.SDL_SetGPUSwapchainParameters_REAL, ptr noundef @.str.8, i32 noundef 2899)
  store i32 %59, ptr %12, align 4
  %60 = load i32, ptr %12, align 4
  %61 = icmp eq i32 %60, 0
  br i1 %61, label %62, label %63

62:                                               ; preds = %58
  store i32 8, ptr %11, align 4
  br label %69

63:                                               ; preds = %58
  %64 = load i32, ptr %12, align 4
  %65 = icmp eq i32 %64, 1
  br i1 %65, label %66, label %67

66:                                               ; preds = %63
  call void @llvm.debugtrap()
  br label %67

67:                                               ; preds = %66, %63
  br label %68

68:                                               ; preds = %67
  store i32 9, ptr %11, align 4
  br label %69

69:                                               ; preds = %68, %62
  call void @llvm.lifetime.end.p0(i64 4, ptr %12) #6
  %70 = load i32, ptr %11, align 4
  switch i32 %70, label %87 [
    i32 8, label %58
    i32 9, label %71
  ]

71:                                               ; preds = %69
  br label %72

72:                                               ; preds = %71
  store i1 false, ptr %5, align 1
  br label %85

73:                                               ; preds = %53
  br label %74

74:                                               ; preds = %73, %22
  %75 = load ptr, ptr %6, align 8
  %76 = getelementptr inbounds nuw %struct.SDL_GPUDevice, ptr %75, i32 0, i32 67
  %77 = load ptr, ptr %76, align 8
  %78 = load ptr, ptr %6, align 8
  %79 = getelementptr inbounds nuw %struct.SDL_GPUDevice, ptr %78, i32 0, i32 83
  %80 = load ptr, ptr %79, align 8
  %81 = load ptr, ptr %7, align 8
  %82 = load i32, ptr %8, align 4
  %83 = load i32, ptr %9, align 4
  %84 = call zeroext i1 %77(ptr noundef %80, ptr noundef %81, i32 noundef %82, i32 noundef %83)
  store i1 %84, ptr %5, align 1
  br label %85

85:                                               ; preds = %74, %72, %49, %20, %15
  %86 = load i1, ptr %5, align 1
  ret i1 %86

87:                                               ; preds = %69, %46
  unreachable
}