; Function Attrs: nounwind uwtable
define hidden zeroext i1 @SDL_SetGPUSwapchainParameters_REAL(ptr noundef readonly captures(address_is_null) %0, ptr noundef %1, i32 noundef %2, i32 noundef %3) local_unnamed_addr #0 {
  %5 = icmp eq ptr %0, null
  br i1 %5, label %6, label %8

6:                                                ; preds = %4
  %7 = tail call zeroext i1 (ptr, ...) @SDL_SetError_REAL(ptr noundef nonnull @.str.3) #7
  br label %.thread

8:                                                ; preds = %4
  %9 = icmp eq ptr %1, null
  br i1 %9, label %10, label %12

10:                                               ; preds = %8
  %11 = tail call zeroext i1 (ptr, ...) @SDL_SetError_REAL(ptr noundef nonnull @.str.4, ptr noundef nonnull @.str.352) #7
  br label %.thread

12:                                               ; preds = %8
  %13 = getelementptr inbounds nuw i8, ptr %0, i64 684
  %14 = load i8, ptr %13, align 4, !range !5, !noundef !6
  %15 = trunc nuw i8 %14 to i1
  br i1 %15, label %16, label %24

16:                                               ; preds = %12
  %17 = icmp ugt i32 %2, 3
  br i1 %17, label %.preheader, label %20

.preheader:                                       ; preds = %16, %.preheader
  %18 = tail call i32 @SDL_ReportAssertion_REAL(ptr noundef nonnull @SDL_SetGPUSwapchainParameters_REAL.sdl_assert_data, ptr noundef nonnull @__func__.SDL_SetGPUSwapchainParameters_REAL, ptr noundef nonnull @.str.8, i32 noundef 2898) #7
  switch i32 %18, label %.thread [
    i32 0, label %.preheader
    i32 1, label %19
  ]

19:                                               ; preds = %.preheader
  tail call void @llvm.debugtrap()
  br label %.thread

20:                                               ; preds = %16
  %21 = icmp ugt i32 %3, 2
  br i1 %21, label %.preheader35, label %24

.preheader35:                                     ; preds = %20, %.preheader35
  %22 = tail call i32 @SDL_ReportAssertion_REAL(ptr noundef nonnull @SDL_SetGPUSwapchainParameters_REAL.sdl_assert_data.358, ptr noundef nonnull @__func__.SDL_SetGPUSwapchainParameters_REAL, ptr noundef nonnull @.str.8, i32 noundef 2899) #7
  switch i32 %22, label %.thread [
    i32 0, label %.preheader35
    i32 1, label %23
  ]

23:                                               ; preds = %.preheader35
  tail call void @llvm.debugtrap()
  br label %.thread

24:                                               ; preds = %20, %12
  %25 = getelementptr inbounds nuw i8, ptr %0, i64 536
  %26 = load ptr, ptr %25, align 8
  %27 = getelementptr inbounds nuw i8, ptr %0, i64 664
  %28 = load ptr, ptr %27, align 8
  %29 = tail call zeroext i1 %26(ptr noundef %28, ptr noundef nonnull %1, i32 noundef %2, i32 noundef %3) #7
  br label %.thread

.thread:                                          ; preds = %.preheader35, %.preheader, %23, %19, %24, %10, %6
  %.0 = phi i1 [ false, %6 ], [ false, %10 ], [ %29, %24 ], [ false, %19 ], [ false, %23 ], [ false, %.preheader ], [ false, %.preheader35 ]
  ret i1 %.0
}